; Function Attrs: nounwind uwtable
define hidden i64 @luaV_idiv(ptr noundef %0, i64 noundef %1, i64 noundef %2) local_unnamed_addr #0 {
  %4 = add i64 %2, 1
  %5 = icmp ult i64 %4, 2
  br i1 %5, label %6, label %11, !prof !20

6:                                                ; preds = %3
  %7 = icmp eq i64 %2, 0
  br i1 %7, label %8, label %9

8:                                                ; preds = %6
  tail call void (ptr, ptr, ...) @luaG_runerror(ptr noundef %0, ptr noundef nonnull @.str.5) #14
  unreachable

9:                                                ; preds = %6
  %10 = sub i64 0, %1
  br label %18

11:                                               ; preds = %3
  %12 = sdiv i64 %1, %2
  %13 = srem i64 %1, %2
  %14 = xor i64 %2, %1
  %15 = icmp slt i64 %14, 0
  br i1 %15, label %16, label %18

16:                                               ; preds = %11
  %.not = icmp ne i64 %13, 0
  %17 = sext i1 %.not to i64
  %spec.select = add nsw i64 %12, %17
  br label %18

18:                                               ; preds = %16, %11, %9
  %.012 = phi i64 [ %10, %9 ], [ %12, %11 ], [ %spec.select, %16 ]
  ret i64 %.012
}